(lp1
(dp2
S'mse'
p3
(lp4
sS'rewards'
p5
(lp6
(lp7
cnumpy.core.multiarray
scalar
p8
(cnumpy
dtype
p9
(S'f8'
I0
I1
tRp10
(I3
S'<'
NNNI-1
I-1
I0
tbS'\x00\x00\x00\x00\x00@\x7f\xc0'
tRp11
aa(lp12
g8
(g10
S'\x00\x00\x00\x00\x00@\x7f\xc0'
tRp13
aa(lp14
g8
(g10
S'\x00\x00\x00\x00\x00@\x7f\xc0'
tRp15
aa(lp16
g8
(g10
S'\x00\x00\x00\x00\x00@\x7f\xc0'
tRp17
aa(lp18
g8
(g10
S'\x00\x00\x00\x00\x00@\x7f\xc0'
tRp19
aa(lp20
g8
(g10
S'\x00\x00\x00\x00\x00@\x7f\xc0'
tRp21
aa(lp22
g8
(g10
S'\x00\x00\x00\x00\x00@\x7f\xc0'
tRp23
aa(lp24
g8
(g10
S'\x00\x00\x00\x00\x00@\x7f\xc0'
tRp25
aa(lp26
g8
(g10
S'\x00\x00\x00\x00\x00@\x7f\xc0'
tRp27
aa(lp28
g8
(g10
S'\x00\x00\x00\x00\x00@\x7f\xc0'
tRp29
aasS'K'
cnumpy.core.multiarray
_reconstruct
p30
(cnumpy
ndarray
p31
(I0
tS'b'
tRp32
(I1
(I1
I2
tg10
I00
S'\xda=\xb1|\x84\xe1\xed?\x82\x8c\xa5B\xdcE\xdf\xbf'
tbsS'exp'
p33
S'results/nL_1_initN_50_past_10_nh_[16]_obsnoise_0.0_wpred_0.0_saved_policy_False_lr_0.01_normalize_act_True_env_Acrobot-v0_wdecay_1.0_reg_0.0001_Hdim_1000_adam_False_numtrajs_50_fullobs_False_len_200_wgrad_1.0_dim_10_method_obsCE_vrate_1_/'
p34
sa.ccopy_reg
_reconstructor
p1
(cargparse
Namespace
p2
c__builtin__
object
p3
NtRp4
(dp5
S'statenoise'
p6
F0
sS'nL'
p7
I1
sS'render'
p8
NsS'fext'
p9
NsS'reg_s1a'
p10
NsS'reg_s1b'
p11
NsS'reg_s1c'
p12
NsS'initN'
p13
I50
sS'wnext'
p14
NsS'past'
p15
I10
sS'valbatch'
p16
NsS'maxtrajs'
p17
NsS'refine'
p18
NsS'nh'
p19
(lp20
I16
asS'obsnoise'
p21
F0
sS'monitor'
p22
NsS'wpred'
p23
F0
sS'datapath'
p24
NsS'saved_policy'
p25
I00
sS'lr'
p26
F0.01
sS'normalize_act'
p27
I01
sS'env'
p28
S'Acrobot-v0'
p29
sS'wdecay'
p30
F1
sS'reg_filter'
p31
NsS'ntrain'
p32
NsS'reg'
p33
F0.0001
sS'Hdim'
p34
I1000
sS'adam'
p35
I00
sS'minrstep'
p36
NsS'repeat'
p37
I1
sS'optimizer'
p38
NsS'tfile'
p39
S'results/'
p40
sS'flname'
p41
S'results/nL_1_initN_50_past_10_nh_[16]_obsnoise_0.0_wpred_0.0_saved_policy_False_lr_0.01_normalize_act_True_env_Acrobot-v0_wdecay_1.0_reg_0.0001_Hdim_1000_adam_False_numtrajs_50_fullobs_False_len_200_wgrad_1.0_dim_10_method_obsCE_vrate_1_/'
p42
sS'numtrajs'
p43
I50
sS'fullobs'
p44
I00
sS'reg_pred'
p45
NsS'len'
p46
I200
sS'wgrad'
p47
F1
sS'gen'
p48
NsS'reg_ex'
p49
NsS'dim'
p50
I10
sS'fut'
p51
NsS'valratio'
p52
NsS'reg_s1div'
p53
NsS'reg_oo'
p54
NsS'batch'
p55
NsS'iter'
p56
I10
sS'method'
p57
S'obsCE'
p58
sS'kw'
p59
NsS'vrate'
p60
I1
sS'rstep'
p61
Nsb.